target datalayout = "e-m:e-p270:32:32-p271:32:32-p272:64:64-i64:64-i128:128-f80:128-n8:16:32:64-S128"
target triple = "x86_64-pc-linux-gnu"

%struct.cmdinfo = type { ptr, ptr, ptr, i32, i32, i32, i32, ptr, ptr, ptr, i64 }

@ncmds = internal global i32 0, align 4
@cmdtab = internal global ptr null, align 8

; Function Attrs: nounwind sspstrong uwtable
define dso_local void @qemuio_complete_command(ptr noundef %0, ptr noundef %1, ptr noundef %2) #0 {
  %4 = alloca ptr, align 8
  %5 = alloca ptr, align 8
  %6 = alloca ptr, align 8
  %7 = alloca ptr, align 8
  %8 = alloca i64, align 8
  store ptr %0, ptr %4, align 8
  store ptr %1, ptr %5, align 8
  store ptr %2, ptr %6, align 8
  call void @llvm.lifetime.start.p0(i64 8, ptr %7) #18
  store ptr null, ptr %7, align 8, !annotation !4
  call void @llvm.lifetime.start.p0(i64 8, ptr %8) #18
  %9 = load ptr, ptr %4, align 8
  %10 = call i64 @strlen(ptr noundef %9) #19
  store i64 %10, ptr %8, align 8
  %11 = load ptr, ptr @cmdtab, align 8
  store ptr %11, ptr %7, align 8
  br label %12

12:                                               ; preds = %34, %3
  %13 = load ptr, ptr %7, align 8
  %14 = load ptr, ptr @cmdtab, align 8
  %15 = load i32, ptr @ncmds, align 4
  %16 = sext i32 %15 to i64
  %17 = getelementptr inbounds %struct.cmdinfo, ptr %14, i64 %16
  %18 = icmp ult ptr %13, %17
  br i1 %18, label %19, label %37

19:                                               ; preds = %12
  %20 = load ptr, ptr %4, align 8
  %21 = load ptr, ptr %7, align 8
  %22 = getelementptr inbounds nuw %struct.cmdinfo, ptr %21, i32 0, i32 0
  %23 = load ptr, ptr %22, align 8
  %24 = load i64, ptr %8, align 8
  %25 = call i32 @strncmp(ptr noundef %20, ptr noundef %23, i64 noundef %24) #19
  %26 = icmp eq i32 %25, 0
  br i1 %26, label %27, label %33

27:                                               ; preds = %19
  %28 = load ptr, ptr %5, align 8
  %29 = load ptr, ptr %7, align 8
  %30 = getelementptr inbounds nuw %struct.cmdinfo, ptr %29, i32 0, i32 0
  %31 = load ptr, ptr %30, align 8
  %32 = load ptr, ptr %6, align 8
  call void %28(ptr noundef %31, ptr noundef %32)
  br label %33

33:                                               ; preds = %27, %19
  br label %34

34:                                               ; preds = %33
  %35 = load ptr, ptr %7, align 8
  %36 = getelementptr inbounds nuw %struct.cmdinfo, ptr %35, i32 1
  store ptr %36, ptr %7, align 8
  br label %12, !llvm.loop !5

37:                                               ; preds = %12
  call void @llvm.lifetime.end.p0(i64 8, ptr %8) #18
  call void @llvm.lifetime.end.p0(i64 8, ptr %7) #18
  ret void
}