; Function Attrs: nounwind sspstrong uwtable
define dso_local void @qemuio_complete_command(ptr noundef readonly captures(none) %0, ptr noundef readonly captures(none) %1, ptr noundef %2) local_unnamed_addr #0 {
  %4 = tail call i64 @strlen(ptr noundef nonnull dereferenceable(1) %0) #27
  %5 = load i32, ptr @ncmds, align 4
  %6 = icmp sgt i32 %5, 0
  br i1 %6, label %.lr.ph.preheader, label %._crit_edge

.lr.ph.preheader:                                 ; preds = %3
  %7 = load ptr, ptr @cmdtab, align 8
  br label %.lr.ph

.lr.ph:                                           ; preds = %.lr.ph.preheader, %14
  %8 = phi i32 [ %15, %14 ], [ %5, %.lr.ph.preheader ]
  %9 = phi ptr [ %16, %14 ], [ %7, %.lr.ph.preheader ]
  %.08 = phi ptr [ %17, %14 ], [ %7, %.lr.ph.preheader ]
  %10 = load ptr, ptr %.08, align 8
  %11 = tail call i32 @strncmp(ptr noundef nonnull %0, ptr noundef %10, i64 noundef %4) #27
  %12 = icmp eq i32 %11, 0
  br i1 %12, label %13, label %14

13:                                               ; preds = %.lr.ph
  tail call void %1(ptr noundef %10, ptr noundef %2) #26
  %.pre = load ptr, ptr @cmdtab, align 8
  %.pre9 = load i32, ptr @ncmds, align 4
  br label %14

14:                                               ; preds = %.lr.ph, %13
  %15 = phi i32 [ %8, %.lr.ph ], [ %.pre9, %13 ]
  %16 = phi ptr [ %9, %.lr.ph ], [ %.pre, %13 ]
  %17 = getelementptr inbounds nuw i8, ptr %.08, i64 72
  %18 = sext i32 %15 to i64
  %19 = getelementptr inbounds %struct.cmdinfo, ptr %16, i64 %18
  %20 = icmp ult ptr %17, %19
  br i1 %20, label %.lr.ph, label %._crit_edge, !llvm.loop !4

._crit_edge:                                      ; preds = %14, %3
  ret void
}